target datalayout = "e-m:e-p270:32:32-p271:32:32-p272:64:64-i64:64-i128:128-f80:128-n8:16:32:64-S128"
target triple = "x86_64-pc-linux-gnu"

%struct.FLAC__Subframe_Constant = type { i64 }

@FLAC__SUBFRAME_TYPE_CONSTANT_BYTE_ALIGNED_MASK = external constant i32, align 4
@FLAC__SUBFRAME_ZERO_PAD_LEN = external constant i32, align 4
@FLAC__SUBFRAME_TYPE_LEN = external constant i32, align 4
@FLAC__SUBFRAME_WASTED_BITS_FLAG_LEN = external constant i32, align 4

; Function Attrs: nounwind sspstrong uwtable
define hidden i32 @FLAC__subframe_add_constant(ptr noundef %0, i32 noundef %1, i32 noundef %2, ptr noundef %3) #0 {
  %5 = alloca ptr, align 8
  %6 = alloca i32, align 4
  %7 = alloca i32, align 4
  %8 = alloca ptr, align 8
  %9 = alloca i32, align 4
  store ptr %0, ptr %5, align 8, !tbaa !30
  store i32 %1, ptr %6, align 4, !tbaa !10
  store i32 %2, ptr %7, align 4, !tbaa !10
  store ptr %3, ptr %8, align 8, !tbaa !8
  call void @llvm.lifetime.start.p0(i64 4, ptr %9) #4
  %10 = load ptr, ptr %8, align 8, !tbaa !8
  %11 = load i32, ptr @FLAC__SUBFRAME_TYPE_CONSTANT_BYTE_ALIGNED_MASK, align 4, !tbaa !10
  %12 = load i32, ptr %7, align 4, !tbaa !10
  %13 = icmp ne i32 %12, 0
  %14 = select i1 %13, i32 1, i32 0
  %15 = or i32 %11, %14
  %16 = load i32, ptr @FLAC__SUBFRAME_ZERO_PAD_LEN, align 4, !tbaa !10
  %17 = load i32, ptr @FLAC__SUBFRAME_TYPE_LEN, align 4, !tbaa !10
  %18 = add i32 %16, %17
  %19 = load i32, ptr @FLAC__SUBFRAME_WASTED_BITS_FLAG_LEN, align 4, !tbaa !10
  %20 = add i32 %18, %19
  %21 = call i32 @FLAC__bitwriter_write_raw_uint32(ptr noundef %10, i32 noundef %15, i32 noundef %20)
  %22 = icmp ne i32 %21, 0
  br i1 %22, label %23, label %41

23:                                               ; preds = %4
  %24 = load i32, ptr %7, align 4, !tbaa !10
  %25 = icmp ne i32 %24, 0
  br i1 %25, label %26, label %32

26:                                               ; preds = %23
  %27 = load ptr, ptr %8, align 8, !tbaa !8
  %28 = load i32, ptr %7, align 4, !tbaa !10
  %29 = sub i32 %28, 1
  %30 = call i32 @FLAC__bitwriter_write_unary_unsigned(ptr noundef %27, i32 noundef %29)
  %31 = icmp ne i32 %30, 0
  br i1 %31, label %33, label %41

32:                                               ; preds = %23
  br i1 true, label %33, label %41

33:                                               ; preds = %32, %26
  %34 = load ptr, ptr %8, align 8, !tbaa !8
  %35 = load ptr, ptr %5, align 8, !tbaa !30
  %36 = getelementptr inbounds nuw %struct.FLAC__Subframe_Constant, ptr %35, i32 0, i32 0
  %37 = load i64, ptr %36, align 8, !tbaa !49
  %38 = load i32, ptr %6, align 4, !tbaa !10
  %39 = call i32 @FLAC__bitwriter_write_raw_int64(ptr noundef %34, i64 noundef %37, i32 noundef %38)
  %40 = icmp ne i32 %39, 0
  br label %41

41:                                               ; preds = %33, %32, %26, %4
  %42 = phi i1 [ false, %32 ], [ false, %26 ], [ false, %4 ], [ %40, %33 ]
  %43 = zext i1 %42 to i32
  store i32 %43, ptr %9, align 4, !tbaa !10
  %44 = load i32, ptr %9, align 4, !tbaa !10
  call void @llvm.lifetime.end.p0(i64 4, ptr %9) #4
  ret i32 %44
}