; Function Attrs: nounwind sspstrong uwtable
define hidden range(i32 0, 2) i32 @FLAC__subframe_add_constant(ptr noundef readonly captures(none) %0, i32 noundef %1, i32 noundef %2, ptr noundef %3) local_unnamed_addr #0 {
  %5 = load i32, ptr @FLAC__SUBFRAME_TYPE_CONSTANT_BYTE_ALIGNED_MASK, align 4, !tbaa !11
  %.not = icmp ne i32 %2, 0
  %6 = zext i1 %.not to i32
  %7 = or i32 %5, %6
  %8 = load i32, ptr @FLAC__SUBFRAME_ZERO_PAD_LEN, align 4, !tbaa !11
  %9 = load i32, ptr @FLAC__SUBFRAME_TYPE_LEN, align 4, !tbaa !11
  %10 = add i32 %9, %8
  %11 = load i32, ptr @FLAC__SUBFRAME_WASTED_BITS_FLAG_LEN, align 4, !tbaa !11
  %12 = add i32 %10, %11
  %13 = tail call i32 @FLAC__bitwriter_write_raw_uint32(ptr noundef %3, i32 noundef %7, i32 noundef %12) #6
  %.not8 = icmp eq i32 %13, 0
  br i1 %.not8, label %23, label %14

14:                                               ; preds = %4
  br i1 %.not, label %15, label %18

15:                                               ; preds = %14
  %16 = add i32 %2, -1
  %17 = tail call i32 @FLAC__bitwriter_write_unary_unsigned(ptr noundef %3, i32 noundef %16) #6
  %.not9 = icmp eq i32 %17, 0
  br i1 %.not9, label %23, label %18

18:                                               ; preds = %14, %15
  %19 = load i64, ptr %0, align 8, !tbaa !43
  %20 = tail call i32 @FLAC__bitwriter_write_raw_int64(ptr noundef %3, i64 noundef %19, i32 noundef %1) #6
  %21 = icmp ne i32 %20, 0
  %22 = zext i1 %21 to i32
  br label %23

23:                                               ; preds = %18, %15, %4
  %24 = phi i32 [ 0, %15 ], [ 0, %4 ], [ %22, %18 ]
  ret i32 %24
}